target datalayout = "e-m:e-p270:32:32-p271:32:32-p272:64:64-i64:64-i128:128-f80:128-n8:16:32:64-S128"
target triple = "x86_64-pc-linux-gnu"

@stderr = external global ptr, align 8
@.str.1 = private unnamed_addr constant [109 x i8] c"generated/home/dtcxzyw/WorkSpace/Projects/compilers/llvm-opt-benchmark/bench/libzmq/libzmq/src/mechanism.cpp\00", align 1
@.str.3 = private unnamed_addr constant [30 x i8] c"Assertion failed: %s (%s:%d)\0A\00", align 1
@.str.12 = private unnamed_addr constant [22 x i8] c"name_len <= UCHAR_MAX\00", align 1

; Function Attrs: mustprogress nounwind uwtable
define internal noundef i64 @_ZL12property_lenmm(i64 noundef %0, i64 noundef %1) #2 {
  %3 = alloca i64, align 8
  %4 = alloca i64, align 8
  store i64 %0, ptr %3, align 8, !tbaa !66
  store i64 %1, ptr %4, align 8, !tbaa !66
  %5 = load i64, ptr %3, align 8, !tbaa !66
  %6 = add i64 1, %5
  %7 = add i64 %6, 4
  %8 = load i64, ptr %4, align 8, !tbaa !66
  %9 = add i64 %7, %8
  ret i64 %9
}

; Function Attrs: mustprogress uwtable
define internal noundef i64 @_ZL8name_lenPKc(ptr noundef %0) #0 {
  %2 = alloca ptr, align 8
  %3 = alloca i64, align 8
  store ptr %0, ptr %2, align 8, !tbaa !67
  call void @llvm.lifetime.start.p0(i64 8, ptr %3) #18
  %4 = load ptr, ptr %2, align 8, !tbaa !67
  %5 = call i64 @strlen(ptr noundef %4) #23
  store i64 %5, ptr %3, align 8, !tbaa !66
  br label %6

6:                                                ; preds = %1
  %7 = load i64, ptr %3, align 8, !tbaa !66
  %8 = icmp ule i64 %7, 255
  %9 = xor i1 %8, true
  %10 = zext i1 %9 to i64
  %11 = call i64 @llvm.expect.i64(i64 %10, i64 0)
  %12 = icmp ne i64 %11, 0
  br i1 %12, label %13, label %18

13:                                               ; preds = %6
  %14 = load ptr, ptr @stderr, align 8, !tbaa !68
  %15 = call i32 (ptr, ptr, ...) @fprintf(ptr noundef %14, ptr noundef @.str.3, ptr noundef @.str.12, ptr noundef @.str.1, i32 noundef 107) #18
  %16 = load ptr, ptr @stderr, align 8, !tbaa !68
  %17 = call i32 @fflush(ptr noundef %16)
  call void @_ZN3zmq9zmq_abortEPKc(ptr noundef @.str.12)
  br label %18

18:                                               ; preds = %13, %6
  br label %19

19:                                               ; preds = %18
  br label %20

20:                                               ; preds = %19
  %21 = load i64, ptr %3, align 8, !tbaa !66
  call void @llvm.lifetime.end.p0(i64 8, ptr %3) #18
  ret i64 %21
}

; Function Attrs: mustprogress uwtable
define noundef i64 @_ZN3zmq11mechanism_t12property_lenEPKcm(ptr noundef %0, i64 noundef %1) #0 align 2 {
  %3 = alloca ptr, align 8
  %4 = alloca i64, align 8
  store ptr %0, ptr %3, align 8, !tbaa !67
  store i64 %1, ptr %4, align 8, !tbaa !66
  %5 = load ptr, ptr %3, align 8, !tbaa !67
  %6 = call noundef i64 @_ZL8name_lenPKc(ptr noundef %5)
  %7 = load i64, ptr %4, align 8, !tbaa !66
  %8 = call noundef i64 @_ZL12property_lenmm(i64 noundef %6, i64 noundef %7)
  ret i64 %8
}