; Function Attrs: mustprogress uwtable
define noundef i64 @_ZN3zmq11mechanism_t12property_lenEPKcm(ptr noundef readonly captures(none) %0, i64 noundef %1) local_unnamed_addr #0 align 2 {
  %3 = tail call i64 @strlen(ptr noundef nonnull readonly dereferenceable(1) %0) #35
  %4 = icmp ugt i64 %3, 255
  br i1 %4, label %5, label %_ZL8name_lenPKc.exit, !prof !36

5:                                                ; preds = %2
  %6 = load ptr, ptr @stderr, align 8, !tbaa !91
  %7 = tail call i32 (ptr, ptr, ...) @fprintf(ptr noundef %6, ptr noundef nonnull @.str.3, ptr noundef nonnull @.str.12, ptr noundef nonnull @.str.1, i32 noundef 107) #33
  %8 = load ptr, ptr @stderr, align 8, !tbaa !91
  %9 = tail call i32 @fflush(ptr noundef %8)
  tail call void @_ZN3zmq9zmq_abortEPKc(ptr noundef nonnull @.str.12)
  br label %_ZL8name_lenPKc.exit

_ZL8name_lenPKc.exit:                             ; preds = %2, %5
  %10 = add i64 %1, 5
  %11 = add i64 %10, %3
  ret i64 %11
}